; ModuleID = 'source-C-CXX/52/985.c'
source_filename = "source-C-CXX/52/985.c"
target datalayout = "e-m:e-p270:32:32-p271:32:32-p272:64:64-i64:64-f80:128-n8:16:32:64-S128"
target triple = "x86_64-pc-linux-gnu"

@.str = private unnamed_addr constant [3 x i8] c"%d\00", align 1
@.str.1 = private unnamed_addr constant [4 x i8] c"%d \00", align 1
@.str.2 = private unnamed_addr constant [4 x i8] c"%d,\00", align 1

; Function Attrs: nofree nounwind sspstrong uwtable
define dso_local void @main() local_unnamed_addr #0 {
  %1 = alloca [300 x i32], align 16
  %2 = alloca [300 x i32], align 16
  %3 = alloca i32, align 4
  %4 = bitcast [300 x i32]* %1 to i8*
  call void @llvm.lifetime.start.p0i8(i64 1200, i8* nonnull %4) #4
  %5 = bitcast [300 x i32]* %2 to i8*
  call void @llvm.lifetime.start.p0i8(i64 1200, i8* nonnull %5) #4
  %6 = bitcast i32* %3 to i8*
  call void @llvm.lifetime.start.p0i8(i64 4, i8* nonnull %6) #4
  %7 = call i32 (i8*, ...) @__isoc99_scanf(i8* getelementptr inbounds ([3 x i8], [3 x i8]* @.str, i64 0, i64 0), i32* nonnull %3)
  %8 = load i32, i32* %3, align 4, !tbaa !5
  %9 = icmp sgt i32 %8, 0
  br i1 %9, label %14, label %58

10:                                               ; preds = %14
  %11 = icmp sgt i32 %19, 0
  br i1 %11, label %12, label %58

12:                                               ; preds = %10
  %13 = zext i32 %19 to i64
  br label %27

14:                                               ; preds = %0, %14
  %15 = phi i64 [ %18, %14 ], [ 0, %0 ]
  %16 = getelementptr inbounds [300 x i32], [300 x i32]* %1, i64 0, i64 %15
  %17 = call i32 (i8*, ...) @__isoc99_scanf(i8* getelementptr inbounds ([4 x i8], [4 x i8]* @.str.1, i64 0, i64 0), i32* nonnull %16)
  %18 = add nuw nsw i64 %15, 1
  %19 = load i32, i32* %3, align 4, !tbaa !5
  %20 = sext i32 %19 to i64
  %21 = icmp slt i64 %18, %20
  br i1 %21, label %14, label %10, !llvm.loop !9

22:                                               ; preds = %47
  %23 = add i32 %48, -1
  %24 = icmp sgt i32 %48, 1
  br i1 %24, label %25, label %58

25:                                               ; preds = %22
  %26 = zext i32 %23 to i64
  br label %51

27:                                               ; preds = %12, %47
  %28 = phi i64 [ 0, %12 ], [ %49, %47 ]
  %29 = phi i32 [ 0, %12 ], [ %48, %47 ]
  %30 = getelementptr inbounds [300 x i32], [300 x i32]* %1, i64 0, i64 %28
  %31 = load i32, i32* %30, align 4, !tbaa !5
  %32 = icmp sgt i32 %29, 0
  br i1 %32, label %33, label %43

33:                                               ; preds = %27
  %34 = zext i32 %29 to i64
  br label %37

35:                                               ; preds = %37
  %36 = icmp eq i64 %42, %34
  br i1 %36, label %43, label %37, !llvm.loop !11

37:                                               ; preds = %35, %33
  %38 = phi i64 [ 0, %33 ], [ %42, %35 ]
  %39 = getelementptr inbounds [300 x i32], [300 x i32]* %2, i64 0, i64 %38
  %40 = load i32, i32* %39, align 4, !tbaa !5
  %41 = icmp eq i32 %40, %31
  %42 = add nuw nsw i64 %38, 1
  br i1 %41, label %47, label %35

43:                                               ; preds = %35, %27
  %44 = sext i32 %29 to i64
  %45 = getelementptr inbounds [300 x i32], [300 x i32]* %2, i64 0, i64 %44
  store i32 %31, i32* %45, align 4, !tbaa !5
  %46 = add nsw i32 %29, 1
  br label %47

47:                                               ; preds = %37, %43
  %48 = phi i32 [ %46, %43 ], [ %29, %37 ]
  %49 = add nuw nsw i64 %28, 1
  %50 = icmp eq i64 %49, %13
  br i1 %50, label %22, label %27, !llvm.loop !12

51:                                               ; preds = %25, %51
  %52 = phi i64 [ 0, %25 ], [ %56, %51 ]
  %53 = getelementptr inbounds [300 x i32], [300 x i32]* %2, i64 0, i64 %52
  %54 = load i32, i32* %53, align 4, !tbaa !5
  %55 = call i32 (i8*, ...) @printf(i8* nonnull dereferenceable(1) getelementptr inbounds ([4 x i8], [4 x i8]* @.str.2, i64 0, i64 0), i32 %54)
  %56 = add nuw nsw i64 %52, 1
  %57 = icmp eq i64 %56, %26
  br i1 %57, label %58, label %51, !llvm.loop !13

58:                                               ; preds = %51, %0, %10, %22
  %59 = phi i32 [ %23, %22 ], [ -1, %10 ], [ -1, %0 ], [ %23, %51 ]
  %60 = sext i32 %59 to i64
  %61 = getelementptr inbounds [300 x i32], [300 x i32]* %2, i64 0, i64 %60
  %62 = load i32, i32* %61, align 4, !tbaa !5
  %63 = call i32 (i8*, ...) @printf(i8* nonnull dereferenceable(1) getelementptr inbounds ([3 x i8], [3 x i8]* @.str, i64 0, i64 0), i32 %62)
  call void @llvm.lifetime.end.p0i8(i64 4, i8* nonnull %6) #4
  call void @llvm.lifetime.end.p0i8(i64 1200, i8* nonnull %5) #4
  call void @llvm.lifetime.end.p0i8(i64 1200, i8* nonnull %4) #4
  ret void
}

; Function Attrs: argmemonly mustprogress nofree nosync nounwind willreturn
declare void @llvm.lifetime.start.p0i8(i64 immarg, i8* nocapture) #1

; Function Attrs: nofree nounwind
declare noundef i32 @__isoc99_scanf(i8* nocapture noundef readonly, ...) local_unnamed_addr #2

; Function Attrs: nofree norecurse nosync nounwind readonly sspstrong uwtable
define dso_local i32 @eva(i32 %0, i32 %1, i32* nocapture readonly %2) local_unnamed_addr #3 {
  %4 = icmp sgt i32 %1, 0
  br i1 %4, label %5, label %15

5:                                                ; preds = %3
  %6 = zext i32 %1 to i64
  br label %9

7:                                                ; preds = %9
  %8 = icmp eq i64 %14, %6
  br i1 %8, label %15, label %9, !llvm.loop !11

9:                                                ; preds = %5, %7
  %10 = phi i64 [ 0, %5 ], [ %14, %7 ]
  %11 = getelementptr inbounds i32, i32* %2, i64 %10
  %12 = load i32, i32* %11, align 4, !tbaa !5
  %13 = icmp eq i32 %12, %0
  %14 = add nuw nsw i64 %10, 1
  br i1 %13, label %15, label %7

15:                                               ; preds = %9, %7, %3
  %16 = phi i32 [ 1, %3 ], [ 1, %7 ], [ 0, %9 ]
  ret i32 %16
}

; Function Attrs: nofree nounwind
declare noundef i32 @printf(i8* nocapture noundef readonly, ...) local_unnamed_addr #2

; Function Attrs: argmemonly mustprogress nofree nosync nounwind willreturn
declare void @llvm.lifetime.end.p0i8(i64 immarg, i8* nocapture) #1


!llvm.module.flags = !{!0, !1, !2, !3}
!llvm.ident = !{!4}

!0 = !{i32 1, !"wchar_size", i32 4}
!1 = !{i32 7, !"PIC Level", i32 2}
!2 = !{i32 7, !"PIE Level", i32 2}
!3 = !{i32 7, !"uwtable", i32 1}
!4 = !{!"clang version 13.0.0"}
!5 = !{!6, !6, i64 0}
!6 = !{!"int", !7, i64 0}
!7 = !{!"omnipotent char", !8, i64 0}
!8 = !{!"Simple C/C++ TBAA"}
!9 = distinct !{!9, !10}
!10 = !{!"llvm.loop.mustprogress"}
!11 = distinct !{!11, !10}
!12 = distinct !{!12, !10}
!13 = distinct !{!13, !10}
